; Function Attrs: nounwind uwtable
define internal ptr @unicode_internfromstring(ptr readnone captures(none) %0, ptr noundef %1) #0 {
  %3 = alloca ptr, align 8
  %4 = alloca i64, align 8
  call void @llvm.lifetime.start.p0(i64 8, ptr nonnull %3) #4
  call void @llvm.lifetime.start.p0(i64 8, ptr nonnull %4) #4
  %5 = call i32 (ptr, ptr, ...) @PyArg_Parse(ptr noundef %1, ptr noundef nonnull @.str.365, ptr noundef nonnull %3, ptr noundef nonnull %4) #4
  %.not = icmp eq i32 %5, 0
  br i1 %.not, label %9, label %6

6:                                                ; preds = %2
  %7 = load ptr, ptr %3, align 8, !tbaa !3
  %8 = call ptr @PyUnicode_InternFromString(ptr noundef %7) #4
  br label %9

9:                                                ; preds = %2, %6
  %.0 = phi ptr [ %8, %6 ], [ null, %2 ]
  call void @llvm.lifetime.end.p0(i64 8, ptr nonnull %4) #4
  call void @llvm.lifetime.end.p0(i64 8, ptr nonnull %3) #4
  ret ptr %.0
}